target datalayout = "e-m:e-p270:32:32-p271:32:32-p272:64:64-i64:64-i128:128-f80:128-n8:16:32:64-S128"
target triple = "x86_64-pc-linux-gnu"

%struct.QMetaObject = type { %"struct.QMetaObject::Data" }
%"struct.QMetaObject::Data" = type { %"struct.QMetaObject::SuperData", ptr, ptr, ptr, ptr, ptr, ptr }
%"struct.QMetaObject::SuperData" = type { ptr }
%class.QString = type { %struct.QArrayDataPointer }
%struct.QArrayDataPointer = type { ptr, ptr, i64 }
%class.QFlags.5 = type { i32 }
%struct.QArrayData = type { %class.QBasicAtomicInteger, %class.QFlags.32, i64 }
%class.QBasicAtomicInteger = type { %"struct.std::atomic" }
%"struct.std::atomic" = type { %"struct.std::__atomic_base" }
%"struct.std::__atomic_base" = type { i32 }
%class.QFlags.32 = type { i32 }

@.str.27 = private unnamed_addr constant [13 x i16] [i16 116, i16 101, i16 65, i16 116, i16 116, i16 114, i16 105, i16 98, i16 117, i16 116, i16 101, i16 115, i16 0], align 2
@.str.31 = private unnamed_addr constant [1 x i8] zeroinitializer, align 1
@_ZN12CFrmSettings16staticMetaObjectE = external global %struct.QMetaObject, align 8
@_ZN9QTextEdit16staticMetaObjectE = external global %struct.QMetaObject, align 8

; Function Attrs: mustprogress nounwind uwtable
define linkonce_odr noundef i32 @_ZNSt13__atomic_baseIiEmmEv(ptr noundef nonnull align 4 dereferenceable(4) %0) #4 comdat align 2 {
  %2 = alloca ptr, align 8
  %3 = alloca i32, align 4
  %4 = alloca i32, align 4
  store ptr %0, ptr %2, align 8, !tbaa !271
  %5 = load ptr, ptr %2, align 8
  %6 = getelementptr inbounds nuw %"struct.std::__atomic_base", ptr %5, i32 0, i32 0
  store i32 1, ptr %3, align 4, !tbaa !10
  %7 = load i32, ptr %3, align 4
  %8 = atomicrmw sub ptr %6, i32 %7 seq_cst, align 4
  %9 = sub i32 %8, %7
  store i32 %9, ptr %4, align 4
  %10 = load i32, ptr %4, align 4, !tbaa !10
  ret i32 %10
}

; Function Attrs: inlinehint mustprogress nounwind uwtable
define linkonce_odr noundef zeroext i1 @_ZN10QAtomicOpsIiE5derefIiEEbRSt6atomicIT_E(ptr noundef nonnull align 4 dereferenceable(4) %0) #3 comdat align 2 {
  %2 = alloca ptr, align 8
  store ptr %0, ptr %2, align 8, !tbaa !269
  %3 = load ptr, ptr %2, align 8, !tbaa !269
  %4 = call noundef i32 @_ZNSt13__atomic_baseIiEmmEv(ptr noundef nonnull align 4 dereferenceable(4) %3) #19
  %5 = icmp ne i32 %4, 0
  ret i1 %5
}

; Function Attrs: mustprogress nounwind uwtable
define linkonce_odr noundef zeroext i1 @_ZN19QBasicAtomicIntegerIiE5derefEv(ptr noundef nonnull align 4 dereferenceable(4) %0) #4 comdat align 2 {
  %2 = alloca ptr, align 8
  store ptr %0, ptr %2, align 8, !tbaa !267
  %3 = load ptr, ptr %2, align 8
  %4 = getelementptr inbounds nuw %class.QBasicAtomicInteger, ptr %3, i32 0, i32 0
  %5 = call noundef zeroext i1 @_ZN10QAtomicOpsIiE5derefIiEEbRSt6atomicIT_E(ptr noundef nonnull align 4 dereferenceable(4) %4) #19
  ret i1 %5
}

; Function Attrs: mustprogress nounwind uwtable
define linkonce_odr noundef zeroext i1 @_ZN10QArrayData5derefEv(ptr noundef nonnull align 8 dereferenceable(16) %0) #4 comdat align 2 {
  %2 = alloca ptr, align 8
  store ptr %0, ptr %2, align 8, !tbaa !265
  %3 = load ptr, ptr %2, align 8
  %4 = getelementptr inbounds nuw %struct.QArrayData, ptr %3, i32 0, i32 0
  %5 = call noundef zeroext i1 @_ZN19QBasicAtomicIntegerIiE5derefEv(ptr noundef nonnull align 4 dereferenceable(4) %4) #19
  ret i1 %5
}

; Function Attrs: mustprogress nounwind uwtable
define linkonce_odr void @_ZN15QTypedArrayDataIDsE10deallocateEP10QArrayData(ptr noundef %0) #4 comdat align 2 {
  %2 = alloca ptr, align 8
  store ptr %0, ptr %2, align 8, !tbaa !265
  %3 = load ptr, ptr %2, align 8, !tbaa !265
  call void @_ZN10QArrayData10deallocateEPS_xx(ptr noundef %3, i64 noundef 2, i64 noundef 8) #19
  ret void
}

; Function Attrs: mustprogress nounwind uwtable
define linkonce_odr void @_ZN9QtPrivate12QPodArrayOpsIDsE10destroyAllEv(ptr noundef nonnull align 8 dereferenceable(24) %0) #4 comdat align 2 {
  %2 = alloca ptr, align 8
  store ptr %0, ptr %2, align 8, !tbaa !350
  ret void
}

; Function Attrs: mustprogress nounwind uwtable
define linkonce_odr noundef ptr @_ZN17QArrayDataPointerIDsEptEv(ptr noundef nonnull align 8 dereferenceable(24) %0) #4 comdat align 2 {
  %2 = alloca ptr, align 8
  store ptr %0, ptr %2, align 8, !tbaa !161
  %3 = load ptr, ptr %2, align 8
  ret ptr %3
}

; Function Attrs: mustprogress nounwind uwtable
define linkonce_odr noundef zeroext i1 @_ZN17QArrayDataPointerIDsE5derefEv(ptr noundef nonnull align 8 dereferenceable(24) %0) #4 comdat align 2 {
  %2 = alloca ptr, align 8
  store ptr %0, ptr %2, align 8, !tbaa !161
  %3 = load ptr, ptr %2, align 8
  %4 = getelementptr inbounds nuw %struct.QArrayDataPointer, ptr %3, i32 0, i32 0
  %5 = load ptr, ptr %4, align 8, !tbaa !169
  %6 = icmp ne ptr %5, null
  br i1 %6, label %7, label %11

7:                                                ; preds = %1
  %8 = getelementptr inbounds nuw %struct.QArrayDataPointer, ptr %3, i32 0, i32 0
  %9 = load ptr, ptr %8, align 8, !tbaa !169
  %10 = call noundef zeroext i1 @_ZN10QArrayData5derefEv(ptr noundef nonnull align 8 dereferenceable(16) %9) #19
  br label %11

11:                                               ; preds = %7, %1
  %12 = phi i1 [ true, %1 ], [ %10, %7 ]
  ret i1 %12
}

; Function Attrs: mustprogress nounwind uwtable
define linkonce_odr void @_ZN17QArrayDataPointerIDsEC2EOS0_(ptr noundef nonnull align 8 dereferenceable(24) %0, ptr noundef nonnull align 8 dereferenceable(24) %1) unnamed_addr #4 comdat align 2 {
  %3 = alloca ptr, align 8
  %4 = alloca ptr, align 8
  store ptr %0, ptr %3, align 8, !tbaa !161
  store ptr %1, ptr %4, align 8, !tbaa !161
  %5 = load ptr, ptr %3, align 8
  %6 = getelementptr inbounds nuw %struct.QArrayDataPointer, ptr %5, i32 0, i32 0
  %7 = load ptr, ptr %4, align 8, !tbaa !161
  %8 = getelementptr inbounds nuw %struct.QArrayDataPointer, ptr %7, i32 0, i32 0
  %9 = load ptr, ptr %8, align 8, !tbaa !169
  store ptr %9, ptr %6, align 8, !tbaa !169
  %10 = getelementptr inbounds nuw %struct.QArrayDataPointer, ptr %5, i32 0, i32 1
  %11 = load ptr, ptr %4, align 8, !tbaa !161
  %12 = getelementptr inbounds nuw %struct.QArrayDataPointer, ptr %11, i32 0, i32 1
  %13 = load ptr, ptr %12, align 8, !tbaa !241
  store ptr %13, ptr %10, align 8, !tbaa !241
  %14 = getelementptr inbounds nuw %struct.QArrayDataPointer, ptr %5, i32 0, i32 2
  %15 = load ptr, ptr %4, align 8, !tbaa !161
  %16 = getelementptr inbounds nuw %struct.QArrayDataPointer, ptr %15, i32 0, i32 2
  %17 = load i64, ptr %16, align 8, !tbaa !242
  store i64 %17, ptr %14, align 8, !tbaa !242
  %18 = load ptr, ptr %4, align 8, !tbaa !161
  %19 = getelementptr inbounds nuw %struct.QArrayDataPointer, ptr %18, i32 0, i32 0
  store ptr null, ptr %19, align 8, !tbaa !169
  %20 = load ptr, ptr %4, align 8, !tbaa !161
  %21 = getelementptr inbounds nuw %struct.QArrayDataPointer, ptr %20, i32 0, i32 1
  store ptr null, ptr %21, align 8, !tbaa !241
  %22 = load ptr, ptr %4, align 8, !tbaa !161
  %23 = getelementptr inbounds nuw %struct.QArrayDataPointer, ptr %22, i32 0, i32 2
  store i64 0, ptr %23, align 8, !tbaa !242
  ret void
}

; Function Attrs: mustprogress nounwind uwtable
define linkonce_odr void @_ZN17QArrayDataPointerIDsEC2EP15QTypedArrayDataIDsEPDsx(ptr noundef nonnull align 8 dereferenceable(24) %0, ptr noundef %1, ptr noundef %2, i64 noundef %3) unnamed_addr #4 comdat align 2 {
  %5 = alloca ptr, align 8
  %6 = alloca ptr, align 8
  %7 = alloca ptr, align 8
  %8 = alloca i64, align 8
  store ptr %0, ptr %5, align 8, !tbaa !161
  store ptr %1, ptr %6, align 8, !tbaa !245
  store ptr %2, ptr %7, align 8, !tbaa !160
  store i64 %3, ptr %8, align 8, !tbaa !22
  %9 = load ptr, ptr %5, align 8
  %10 = getelementptr inbounds nuw %struct.QArrayDataPointer, ptr %9, i32 0, i32 0
  %11 = load ptr, ptr %6, align 8, !tbaa !245
  store ptr %11, ptr %10, align 8, !tbaa !169
  %12 = getelementptr inbounds nuw %struct.QArrayDataPointer, ptr %9, i32 0, i32 1
  %13 = load ptr, ptr %7, align 8, !tbaa !160
  store ptr %13, ptr %12, align 8, !tbaa !241
  %14 = getelementptr inbounds nuw %struct.QArrayDataPointer, ptr %9, i32 0, i32 2
  %15 = load i64, ptr %8, align 8, !tbaa !22
  store i64 %15, ptr %14, align 8, !tbaa !242
  ret void
}

; Function Attrs: mustprogress nounwind uwtable
define linkonce_odr void @_ZN17QArrayDataPointerIDsED2Ev(ptr noundef nonnull align 8 dereferenceable(24) %0) unnamed_addr #4 comdat align 2 {
  %2 = alloca ptr, align 8
  store ptr %0, ptr %2, align 8, !tbaa !161
  %3 = load ptr, ptr %2, align 8
  %4 = call noundef zeroext i1 @_ZN17QArrayDataPointerIDsE5derefEv(ptr noundef nonnull align 8 dereferenceable(24) %3) #19
  br i1 %4, label %9, label %5

5:                                                ; preds = %1
  %6 = call noundef ptr @_ZN17QArrayDataPointerIDsEptEv(ptr noundef nonnull align 8 dereferenceable(24) %3) #19
  call void @_ZN9QtPrivate12QPodArrayOpsIDsE10destroyAllEv(ptr noundef nonnull align 8 dereferenceable(24) %6) #19
  %7 = getelementptr inbounds nuw %struct.QArrayDataPointer, ptr %3, i32 0, i32 0
  %8 = load ptr, ptr %7, align 8, !tbaa !169
  call void @_ZN15QTypedArrayDataIDsE10deallocateEP10QArrayData(ptr noundef %8) #19
  br label %9

9:                                                ; preds = %5, %1
  ret void
}

; Function Attrs: inlinehint mustprogress nounwind uwtable
define linkonce_odr void @_ZN7QStringD2Ev(ptr noundef nonnull align 8 dereferenceable(24) %0) unnamed_addr #3 comdat align 2 {
  %2 = alloca ptr, align 8
  store ptr %0, ptr %2, align 8, !tbaa !3
  %3 = load ptr, ptr %2, align 8
  %4 = getelementptr inbounds nuw %class.QString, ptr %3, i32 0, i32 0
  call void @_ZN17QArrayDataPointerIDsED2Ev(ptr noundef nonnull align 8 dereferenceable(24) %4) #19
  ret void
}

; Function Attrs: inlinehint mustprogress uwtable
define linkonce_odr void @_ZN12CFrmSettings2trEPKcS1_i(ptr dead_on_unwind noalias writable sret(%class.QString) align 8 %0, ptr noundef %1, ptr noundef %2, i32 noundef %3) #6 comdat align 2 {
  %5 = alloca ptr, align 8
  %6 = alloca ptr, align 8
  %7 = alloca ptr, align 8
  %8 = alloca i32, align 4
  store ptr %0, ptr %5, align 8
  store ptr %1, ptr %6, align 8, !tbaa !24
  store ptr %2, ptr %7, align 8, !tbaa !24
  store i32 %3, ptr %8, align 4, !tbaa !10
  %9 = load ptr, ptr %6, align 8, !tbaa !24
  %10 = load ptr, ptr %7, align 8, !tbaa !24
  %11 = load i32, ptr %8, align 4, !tbaa !10
  call void @_ZNK11QMetaObject2trEPKcS1_i(ptr dead_on_unwind writable sret(%class.QString) align 8 %0, ptr noundef nonnull align 8 dereferenceable(56) @_ZN12CFrmSettings16staticMetaObjectE, ptr noundef %9, ptr noundef %10, i32 noundef %11)
  ret void
}

; Function Attrs: inlinehint mustprogress uwtable
define linkonce_odr noundef ptr @_ZNK7QObject9findChildIP9QTextEditEET_RK7QString6QFlagsIN2Qt15FindChildOptionEE(ptr noundef nonnull align 8 dereferenceable(16) %0, ptr noundef nonnull align 8 dereferenceable(24) %1, i32 %2) #6 comdat align 2 {
  %4 = alloca %class.QFlags.5, align 4
  %5 = alloca ptr, align 8
  %6 = alloca ptr, align 8
  %7 = alloca %class.QFlags.5, align 4
  %8 = getelementptr inbounds nuw %class.QFlags.5, ptr %4, i32 0, i32 0
  store i32 %2, ptr %8, align 4
  store ptr %0, ptr %5, align 8, !tbaa !157
  store ptr %1, ptr %6, align 8, !tbaa !3
  %9 = load ptr, ptr %5, align 8
  %10 = load ptr, ptr %6, align 8, !tbaa !3
  call void @llvm.memcpy.p0.p0.i64(ptr align 4 %7, ptr align 4 %4, i64 4, i1 false), !tbaa.struct !159
  %11 = getelementptr inbounds nuw %class.QFlags.5, ptr %7, i32 0, i32 0
  %12 = load i32, ptr %11, align 4
  %13 = call noundef ptr @_Z20qt_qFindChild_helperPK7QObjectRK7QStringRK11QMetaObject6QFlagsIN2Qt15FindChildOptionEE(ptr noundef %9, ptr noundef nonnull align 8 dereferenceable(24) %10, ptr noundef nonnull align 8 dereferenceable(56) @_ZN9QTextEdit16staticMetaObjectE, i32 %12)
  ret ptr %13
}

; Function Attrs: inlinehint mustprogress nounwind uwtable
define linkonce_odr void @_ZN6QFlagsIN2Qt15FindChildOptionEEC2ES1_(ptr noundef nonnull align 4 dereferenceable(4) %0, i32 noundef %1) unnamed_addr #3 comdat align 2 {
  %3 = alloca ptr, align 8
  %4 = alloca i32, align 4
  store ptr %0, ptr %3, align 8, !tbaa !163
  store i32 %1, ptr %4, align 4, !tbaa !165
  %5 = load ptr, ptr %3, align 8
  %6 = getelementptr inbounds nuw %class.QFlags.5, ptr %5, i32 0, i32 0
  %7 = load i32, ptr %4, align 4, !tbaa !165
  store i32 %7, ptr %6, align 4, !tbaa !167
  ret void
}

; Function Attrs: mustprogress nounwind uwtable
define linkonce_odr void @_ZN7QStringC2EO17QArrayDataPointerIDsE(ptr noundef nonnull align 8 dereferenceable(24) %0, ptr noundef nonnull align 8 dereferenceable(24) %1) unnamed_addr #4 comdat align 2 {
  %3 = alloca ptr, align 8
  %4 = alloca ptr, align 8
  store ptr %0, ptr %3, align 8, !tbaa !3
  store ptr %1, ptr %4, align 8, !tbaa !161
  %5 = load ptr, ptr %3, align 8
  %6 = getelementptr inbounds nuw %class.QString, ptr %5, i32 0, i32 0
  %7 = load ptr, ptr %4, align 8, !tbaa !161
  call void @_ZN17QArrayDataPointerIDsEC2EOS0_(ptr noundef nonnull align 8 dereferenceable(24) %6, ptr noundef nonnull align 8 dereferenceable(24) %7) #19
  ret void
}

; Function Attrs: alwaysinline mustprogress nounwind uwtable
define internal void @_ZN9QtPrivateL18qMakeStringPrivateILx13EEE17QArrayDataPointerIDsERAT__KDs(ptr dead_on_unwind noalias writable sret(%struct.QArrayDataPointer) align 8 %0, ptr noundef nonnull align 2 dereferenceable(26) %1) #7 {
  %3 = alloca ptr, align 8
  %4 = alloca ptr, align 8
  %5 = alloca ptr, align 8
  store ptr %0, ptr %3, align 8
  store ptr %1, ptr %4, align 8, !tbaa !160
  call void @llvm.lifetime.start.p0(i64 8, ptr %5) #19
  %6 = load ptr, ptr %4, align 8, !tbaa !160
  %7 = getelementptr inbounds [13 x i16], ptr %6, i64 0, i64 0
  store ptr %7, ptr %5, align 8, !tbaa !160
  %8 = load ptr, ptr %5, align 8, !tbaa !160
  call void @_ZN17QArrayDataPointerIDsEC2EP15QTypedArrayDataIDsEPDsx(ptr noundef nonnull align 8 dereferenceable(24) %0, ptr noundef null, ptr noundef %8, i64 noundef 12) #19
  call void @llvm.lifetime.end.p0(i64 8, ptr %5) #19
  ret void
}

; Function Attrs: mustprogress uwtable
define void @_ZN12CFrmSettings7newSlotEv(ptr noundef nonnull align 8 dereferenceable(152) %0) #0 align 2 personality ptr @__gxx_personality_v0 {
  %2 = alloca ptr, align 8
  %3 = alloca %class.QString, align 8
  %4 = alloca %struct.QArrayDataPointer, align 8
  %5 = alloca ptr, align 8
  %6 = alloca i32, align 4
  %7 = alloca %class.QFlags.5, align 4
  %8 = alloca %class.QString, align 8
  store ptr %0, ptr %2, align 8, !tbaa !55
  %9 = load ptr, ptr %2, align 8
  call void @llvm.lifetime.start.p0(i64 24, ptr %3) #19
  call void @llvm.lifetime.start.p0(i64 24, ptr %4) #19
  call void @_ZN9QtPrivateL18qMakeStringPrivateILx13EEE17QArrayDataPointerIDsERAT__KDs(ptr dead_on_unwind writable sret(%struct.QArrayDataPointer) align 8 %4, ptr noundef nonnull align 2 dereferenceable(26) @.str.27)
  invoke void @_ZN7QStringC2EO17QArrayDataPointerIDsE(ptr noundef nonnull align 8 dereferenceable(24) %3, ptr noundef nonnull align 8 dereferenceable(24) %4)
          to label %10 unwind label %17

10:                                               ; preds = %1
  call void @_ZN6QFlagsIN2Qt15FindChildOptionEEC2ES1_(ptr noundef nonnull align 4 dereferenceable(4) %7, i32 noundef 1) #19
  %11 = getelementptr inbounds nuw %class.QFlags.5, ptr %7, i32 0, i32 0
  %12 = load i32, ptr %11, align 4
  %13 = invoke noundef ptr @_ZNK7QObject9findChildIP9QTextEditEET_RK7QString6QFlagsIN2Qt15FindChildOptionEE(ptr noundef nonnull align 8 dereferenceable(16) %9, ptr noundef nonnull align 8 dereferenceable(24) %3, i32 %12)
          to label %14 unwind label %21

14:                                               ; preds = %10
  call void @llvm.lifetime.start.p0(i64 24, ptr %8) #19
  invoke void @_ZN12CFrmSettings2trEPKcS1_i(ptr dead_on_unwind writable sret(%class.QString) align 8 %8, ptr noundef @.str.31, ptr noundef null, i32 noundef -1)
          to label %15 unwind label %25

15:                                               ; preds = %14
  invoke void @_ZN9QTextEdit12setPlainTextERK7QString(ptr noundef nonnull align 8 dereferenceable(40) %13, ptr noundef nonnull align 8 dereferenceable(24) %8)
          to label %16 unwind label %29

16:                                               ; preds = %15
  call void @_ZN7QStringD2Ev(ptr noundef nonnull align 8 dereferenceable(24) %8) #19
  call void @llvm.lifetime.end.p0(i64 24, ptr %8) #19
  call void @_ZN7QStringD2Ev(ptr noundef nonnull align 8 dereferenceable(24) %3) #19
  call void @_ZN17QArrayDataPointerIDsED2Ev(ptr noundef nonnull align 8 dereferenceable(24) %4) #19
  call void @llvm.lifetime.end.p0(i64 24, ptr %4) #19
  call void @llvm.lifetime.end.p0(i64 24, ptr %3) #19
  ret void

17:                                               ; preds = %1
  %18 = landingpad { ptr, i32 }
          cleanup
  %19 = extractvalue { ptr, i32 } %18, 0
  store ptr %19, ptr %5, align 8
  %20 = extractvalue { ptr, i32 } %18, 1
  store i32 %20, ptr %6, align 4
  br label %35

21:                                               ; preds = %10
  %22 = landingpad { ptr, i32 }
          cleanup
  %23 = extractvalue { ptr, i32 } %22, 0
  store ptr %23, ptr %5, align 8
  %24 = extractvalue { ptr, i32 } %22, 1
  store i32 %24, ptr %6, align 4
  br label %34

25:                                               ; preds = %14
  %26 = landingpad { ptr, i32 }
          cleanup
  %27 = extractvalue { ptr, i32 } %26, 0
  store ptr %27, ptr %5, align 8
  %28 = extractvalue { ptr, i32 } %26, 1
  store i32 %28, ptr %6, align 4
  br label %33

29:                                               ; preds = %15
  %30 = landingpad { ptr, i32 }
          cleanup
  %31 = extractvalue { ptr, i32 } %30, 0
  store ptr %31, ptr %5, align 8
  %32 = extractvalue { ptr, i32 } %30, 1
  store i32 %32, ptr %6, align 4
  call void @_ZN7QStringD2Ev(ptr noundef nonnull align 8 dereferenceable(24) %8) #19
  br label %33

33:                                               ; preds = %29, %25
  call void @llvm.lifetime.end.p0(i64 24, ptr %8) #19
  br label %34

34:                                               ; preds = %33, %21
  call void @_ZN7QStringD2Ev(ptr noundef nonnull align 8 dereferenceable(24) %3) #19
  br label %35

35:                                               ; preds = %34, %17
  call void @_ZN17QArrayDataPointerIDsED2Ev(ptr noundef nonnull align 8 dereferenceable(24) %4) #19
  call void @llvm.lifetime.end.p0(i64 24, ptr %4) #19
  call void @llvm.lifetime.end.p0(i64 24, ptr %3) #19
  br label %36

36:                                               ; preds = %35
  %37 = load ptr, ptr %5, align 8
  %38 = load i32, ptr %6, align 4
  %39 = insertvalue { ptr, i32 } poison, ptr %37, 0
  %40 = insertvalue { ptr, i32 } %39, i32 %38, 1
  resume { ptr, i32 } %40
}