; Function Attrs: mustprogress uwtable
define void @_ZN12CFrmSettings7newSlotEv(ptr noundef nonnull align 8 dereferenceable(152) %0) #0 align 2 personality ptr @__gxx_personality_v0 {
  %2 = alloca %class.QString, align 8
  %3 = alloca %class.QString, align 8
  call void @llvm.lifetime.start.p0(i64 24, ptr nonnull %2) #23
  store ptr null, ptr %2, align 8, !tbaa !12
  %4 = getelementptr inbounds nuw i8, ptr %2, i64 8
  store ptr @.str.27, ptr %4, align 8, !tbaa !16
  %5 = getelementptr inbounds nuw i8, ptr %2, i64 16
  store i64 12, ptr %5, align 8, !tbaa !97
  %6 = invoke noundef ptr @_Z20qt_qFindChild_helperPK7QObjectRK7QStringRK11QMetaObject6QFlagsIN2Qt15FindChildOptionEE(ptr noundef nonnull align 8 dereferenceable(16) %0, ptr noundef nonnull align 8 dereferenceable(24) %2, ptr noundef nonnull align 8 dereferenceable(56) @_ZN9QTextEdit16staticMetaObjectE, i32 1)
          to label %_ZNK7QObject9findChildIP9QTextEditEET_RK7QString6QFlagsIN2Qt15FindChildOptionEE.exit unwind label %16

_ZNK7QObject9findChildIP9QTextEditEET_RK7QString6QFlagsIN2Qt15FindChildOptionEE.exit: ; preds = %1
  call void @llvm.lifetime.start.p0(i64 24, ptr nonnull %3) #23
  invoke void @_ZNK11QMetaObject2trEPKcS1_i(ptr dead_on_unwind nonnull writable sret(%class.QString) align 8 %3, ptr noundef nonnull align 8 dereferenceable(56) @_ZN12CFrmSettings16staticMetaObjectE, ptr noundef nonnull @.str.31, ptr noundef null, i32 noundef -1)
          to label %_ZN12CFrmSettings2trEPKcS1_i.exit unwind label %18

_ZN12CFrmSettings2trEPKcS1_i.exit:                ; preds = %_ZNK7QObject9findChildIP9QTextEditEET_RK7QString6QFlagsIN2Qt15FindChildOptionEE.exit
  invoke void @_ZN9QTextEdit12setPlainTextERK7QString(ptr noundef nonnull align 8 dereferenceable(40) %6, ptr noundef nonnull align 8 dereferenceable(24) %3)
          to label %7 unwind label %20

7:                                                ; preds = %_ZN12CFrmSettings2trEPKcS1_i.exit
  %8 = load ptr, ptr %3, align 8, !tbaa !12
  %.not.i.i.i = icmp eq ptr %8, null
  br i1 %.not.i.i.i, label %_ZN7QStringD2Ev.exit, label %_ZN17QArrayDataPointerIDsE5derefEv.exit.i.i

_ZN17QArrayDataPointerIDsE5derefEv.exit.i.i:      ; preds = %7
  %9 = atomicrmw sub ptr %8, i32 1 seq_cst, align 4
  %.not.i.i = icmp eq i32 %9, 1
  br i1 %.not.i.i, label %10, label %_ZN7QStringD2Ev.exit

10:                                               ; preds = %_ZN17QArrayDataPointerIDsE5derefEv.exit.i.i
  %11 = load ptr, ptr %3, align 8, !tbaa !12
  call void @_ZN10QArrayData10deallocateEPS_xx(ptr noundef %11, i64 noundef 2, i64 noundef 8) #23
  br label %_ZN7QStringD2Ev.exit

_ZN7QStringD2Ev.exit:                             ; preds = %7, %_ZN17QArrayDataPointerIDsE5derefEv.exit.i.i, %10
  call void @llvm.lifetime.end.p0(i64 24, ptr nonnull %3) #23
  %12 = load ptr, ptr %2, align 8, !tbaa !12
  %.not.i.i.i6 = icmp eq ptr %12, null
  br i1 %.not.i.i.i6, label %_ZN17QArrayDataPointerIDsED2Ev.exit, label %_ZN17QArrayDataPointerIDsE5derefEv.exit.i.i7

_ZN17QArrayDataPointerIDsE5derefEv.exit.i.i7:     ; preds = %_ZN7QStringD2Ev.exit
  %13 = atomicrmw sub ptr %12, i32 1 seq_cst, align 4
  %.not.i.i8 = icmp eq i32 %13, 1
  br i1 %.not.i.i8, label %14, label %_ZN17QArrayDataPointerIDsED2Ev.exit

14:                                               ; preds = %_ZN17QArrayDataPointerIDsE5derefEv.exit.i.i7
  %15 = load ptr, ptr %2, align 8, !tbaa !12
  call void @_ZN10QArrayData10deallocateEPS_xx(ptr noundef %15, i64 noundef 2, i64 noundef 8) #23
  br label %_ZN17QArrayDataPointerIDsED2Ev.exit

_ZN17QArrayDataPointerIDsED2Ev.exit:              ; preds = %14, %_ZN17QArrayDataPointerIDsE5derefEv.exit.i.i7, %_ZN7QStringD2Ev.exit
  call void @llvm.lifetime.end.p0(i64 24, ptr nonnull %2) #23
  ret void

16:                                               ; preds = %1
  %17 = landingpad { ptr, i32 }
          cleanup
  br label %26

18:                                               ; preds = %_ZNK7QObject9findChildIP9QTextEditEET_RK7QString6QFlagsIN2Qt15FindChildOptionEE.exit
  %19 = landingpad { ptr, i32 }
          cleanup
  br label %_ZN7QStringD2Ev.exit14

20:                                               ; preds = %_ZN12CFrmSettings2trEPKcS1_i.exit
  %21 = landingpad { ptr, i32 }
          cleanup
  %22 = load ptr, ptr %3, align 8, !tbaa !12
  %.not.i.i.i11 = icmp eq ptr %22, null
  br i1 %.not.i.i.i11, label %_ZN7QStringD2Ev.exit14, label %_ZN17QArrayDataPointerIDsE5derefEv.exit.i.i12

_ZN17QArrayDataPointerIDsE5derefEv.exit.i.i12:    ; preds = %20
  %23 = atomicrmw sub ptr %22, i32 1 seq_cst, align 4
  %.not.i.i13 = icmp eq i32 %23, 1
  br i1 %.not.i.i13, label %24, label %_ZN7QStringD2Ev.exit14

24:                                               ; preds = %_ZN17QArrayDataPointerIDsE5derefEv.exit.i.i12
  %25 = load ptr, ptr %3, align 8, !tbaa !12
  call void @_ZN10QArrayData10deallocateEPS_xx(ptr noundef %25, i64 noundef 2, i64 noundef 8) #23
  br label %_ZN7QStringD2Ev.exit14

_ZN7QStringD2Ev.exit14:                           ; preds = %24, %_ZN17QArrayDataPointerIDsE5derefEv.exit.i.i12, %20, %18
  %.pn = phi { ptr, i32 } [ %19, %18 ], [ %21, %20 ], [ %21, %_ZN17QArrayDataPointerIDsE5derefEv.exit.i.i12 ], [ %21, %24 ]
  call void @llvm.lifetime.end.p0(i64 24, ptr nonnull %3) #23
  br label %26

26:                                               ; preds = %_ZN7QStringD2Ev.exit14, %16
  %.pn.pn = phi { ptr, i32 } [ %.pn, %_ZN7QStringD2Ev.exit14 ], [ %17, %16 ]
  %27 = load ptr, ptr %2, align 8, !tbaa !12
  %.not.i.i.i15 = icmp eq ptr %27, null
  br i1 %.not.i.i.i15, label %_ZN17QArrayDataPointerIDsED2Ev.exit22, label %_ZN17QArrayDataPointerIDsE5derefEv.exit.i.i16

_ZN17QArrayDataPointerIDsE5derefEv.exit.i.i16:    ; preds = %26
  %28 = atomicrmw sub ptr %27, i32 1 seq_cst, align 4
  %.not.i.i17 = icmp eq i32 %28, 1
  br i1 %.not.i.i17, label %29, label %_ZN17QArrayDataPointerIDsED2Ev.exit22

29:                                               ; preds = %_ZN17QArrayDataPointerIDsE5derefEv.exit.i.i16
  %30 = load ptr, ptr %2, align 8, !tbaa !12
  call void @_ZN10QArrayData10deallocateEPS_xx(ptr noundef %30, i64 noundef 2, i64 noundef 8) #23
  br label %_ZN17QArrayDataPointerIDsED2Ev.exit22

_ZN17QArrayDataPointerIDsED2Ev.exit22:            ; preds = %29, %_ZN17QArrayDataPointerIDsE5derefEv.exit.i.i16, %26
  call void @llvm.lifetime.end.p0(i64 24, ptr nonnull %2) #23
  resume { ptr, i32 } %.pn.pn
}